target datalayout = "e-m:e-p270:32:32-p271:32:32-p272:64:64-i64:64-i128:128-f80:128-n8:16:32:64-S128"
target triple = "x86_64-pc-linux-gnu"

%struct.rlimit = type { i64, i64 }

@stderr = external global ptr, align 8
@.str = private unnamed_addr constant [76 x i8] c"[dt_set_rlimits_stack] error: getrlimit(RLIMIT_STACK) returned %i: %i (%s)\0A\00", align 1
@.str.1 = private unnamed_addr constant [76 x i8] c"[dt_set_rlimits_stack] info: bumping RLIMIT_STACK rlim_cur from %lu to %lu\0A\00", align 1
@.str.2 = private unnamed_addr constant [76 x i8] c"[dt_set_rlimits_stack] error: setrlimit(RLIMIT_STACK) returned %i: %i (%s)\0A\00", align 1

; Function Attrs: nounwind uwtable
define void @dt_set_rlimits() #0 {
  call void @dt_set_rlimits_stack()
  ret void
}

; Function Attrs: nounwind uwtable
define internal void @dt_set_rlimits_stack() #0 {
  %1 = alloca i32, align 4
  %2 = alloca %struct.rlimit, align 8
  %3 = alloca i32, align 4
  %4 = alloca i32, align 4
  call void @llvm.lifetime.start.p0(i64 4, ptr %1) #5
  call void @llvm.lifetime.start.p0(i64 16, ptr %2) #5
  call void @llvm.memset.p0.i64(ptr align 8 %2, i8 0, i64 16, i1 false)
  %5 = call i32 @getrlimit(i32 noundef 3, ptr noundef %2) #5
  store i32 %5, ptr %1, align 4, !tbaa !6
  %6 = load i32, ptr %1, align 4, !tbaa !6
  %7 = icmp ne i32 %6, 0
  br i1 %7, label %8, label %17

8:                                                ; preds = %0
  call void @llvm.lifetime.start.p0(i64 4, ptr %3) #5
  %9 = call ptr @__errno_location() #6
  %10 = load i32, ptr %9, align 4, !tbaa !6
  store i32 %10, ptr %3, align 4, !tbaa !6
  %11 = load ptr, ptr @stderr, align 8, !tbaa !10
  %12 = load i32, ptr %1, align 4, !tbaa !6
  %13 = load i32, ptr %3, align 4, !tbaa !6
  %14 = load i32, ptr %3, align 4, !tbaa !6
  %15 = call ptr @strerror(i32 noundef %14) #5
  %16 = call i32 (ptr, ptr, ...) @fprintf(ptr noundef %11, ptr noundef @.str, i32 noundef %12, i32 noundef %13, ptr noundef %15) #5
  call void @llvm.lifetime.end.p0(i64 4, ptr %3) #5
  br label %17

17:                                               ; preds = %8, %0
  %18 = load i32, ptr %1, align 4, !tbaa !6
  %19 = icmp ne i32 %18, 0
  br i1 %19, label %28, label %20

20:                                               ; preds = %17
  %21 = getelementptr inbounds nuw %struct.rlimit, ptr %2, i32 0, i32 0
  %22 = load i64, ptr %21, align 8, !tbaa !13
  %23 = icmp ult i64 %22, 2097152
  br i1 %23, label %24, label %47

24:                                               ; preds = %20
  %25 = getelementptr inbounds nuw %struct.rlimit, ptr %2, i32 0, i32 0
  %26 = load i64, ptr %25, align 8, !tbaa !13
  %27 = icmp ne i64 %26, -1
  br i1 %27, label %28, label %47

28:                                               ; preds = %24, %17
  %29 = load ptr, ptr @stderr, align 8, !tbaa !10
  %30 = getelementptr inbounds nuw %struct.rlimit, ptr %2, i32 0, i32 0
  %31 = load i64, ptr %30, align 8, !tbaa !13
  %32 = call i32 (ptr, ptr, ...) @fprintf(ptr noundef %29, ptr noundef @.str.1, i64 noundef %31, i64 noundef 2097152) #5
  %33 = getelementptr inbounds nuw %struct.rlimit, ptr %2, i32 0, i32 0
  store i64 2097152, ptr %33, align 8, !tbaa !13
  %34 = call i32 @setrlimit(i32 noundef 3, ptr noundef %2) #5
  store i32 %34, ptr %1, align 4, !tbaa !6
  %35 = load i32, ptr %1, align 4, !tbaa !6
  %36 = icmp ne i32 %35, 0
  br i1 %36, label %37, label %46

37:                                               ; preds = %28
  call void @llvm.lifetime.start.p0(i64 4, ptr %4) #5
  %38 = call ptr @__errno_location() #6
  %39 = load i32, ptr %38, align 4, !tbaa !6
  store i32 %39, ptr %4, align 4, !tbaa !6
  %40 = load ptr, ptr @stderr, align 8, !tbaa !10
  %41 = load i32, ptr %1, align 4, !tbaa !6
  %42 = load i32, ptr %4, align 4, !tbaa !6
  %43 = load i32, ptr %4, align 4, !tbaa !6
  %44 = call ptr @strerror(i32 noundef %43) #5
  %45 = call i32 (ptr, ptr, ...) @fprintf(ptr noundef %40, ptr noundef @.str.2, i32 noundef %41, i32 noundef %42, ptr noundef %44) #5
  call void @llvm.lifetime.end.p0(i64 4, ptr %4) #5
  br label %46

46:                                               ; preds = %37, %28
  br label %47

47:                                               ; preds = %46, %24, %20
  call void @llvm.lifetime.end.p0(i64 16, ptr %2) #5
  call void @llvm.lifetime.end.p0(i64 4, ptr %1) #5
  ret void
}

; Function Attrs: nocallback nofree nosync nounwind willreturn memory(argmem: readwrite)
declare void @llvm.lifetime.start.p0(i64 immarg, ptr captures(none)) #1

; Function Attrs: nocallback nofree nounwind willreturn memory(argmem: write)
declare void @llvm.memset.p0.i64(ptr writeonly captures(none), i8, i64, i1 immarg) #2

; Function Attrs: nounwind
declare i32 @getrlimit(i32 noundef, ptr noundef) #3

; Function Attrs: nounwind willreturn memory(none)
declare ptr @__errno_location() #4

; Function Attrs: nounwind
declare i32 @fprintf(ptr noundef, ptr noundef, ...) #3

; Function Attrs: nounwind
declare ptr @strerror(i32 noundef) #3

; Function Attrs: nocallback nofree nosync nounwind willreturn memory(argmem: readwrite)
declare void @llvm.lifetime.end.p0(i64 immarg, ptr captures(none)) #1

; Function Attrs: nounwind
declare i32 @setrlimit(i32 noundef, ptr noundef) #3


!llvm.module.flags = !{!0, !1, !2, !3, !4, !5}

!0 = !{i32 7, !"Dwarf Version", i32 5}
!1 = !{i32 2, !"Debug Info Version", i32 3}
!2 = !{i32 1, !"wchar_size", i32 4}
!3 = !{i32 8, !"PIC Level", i32 2}
!4 = !{i32 7, !"uwtable", i32 2}
!5 = !{i32 7, !"debug-info-assignment-tracking", i1 true}
!6 = !{!7, !7, i64 0}
!7 = !{!"int", !8, i64 0}
!8 = !{!"omnipotent char", !9, i64 0}
!9 = !{!"Simple C/C++ TBAA"}
!10 = !{!11, !11, i64 0}
!11 = !{!"p1 _ZTS8_IO_FILE", !12, i64 0}
!12 = !{!"any pointer", !8, i64 0}
!13 = !{!14, !15, i64 0}
!14 = !{!"rlimit", !15, i64 0, !15, i64 8}
!15 = !{!"long", !8, i64 0}
