; ModuleID = 'bench/darktable/original/resource_limits.ll'
source_filename = "bench/darktable/original/resource_limits.ll"
target datalayout = "e-m:e-p270:32:32-p271:32:32-p272:64:64-i64:64-i128:128-f80:128-n8:16:32:64-S128"
target triple = "x86_64-pc-linux-gnu"

%struct.rlimit = type { i64, i64 }

@stderr = external local_unnamed_addr global ptr, align 8
@.str = private unnamed_addr constant [76 x i8] c"[dt_set_rlimits_stack] error: getrlimit(RLIMIT_STACK) returned %i: %i (%s)\0A\00", align 1
@.str.1 = private unnamed_addr constant [76 x i8] c"[dt_set_rlimits_stack] info: bumping RLIMIT_STACK rlim_cur from %lu to %lu\0A\00", align 1
@.str.2 = private unnamed_addr constant [76 x i8] c"[dt_set_rlimits_stack] error: setrlimit(RLIMIT_STACK) returned %i: %i (%s)\0A\00", align 1

; Function Attrs: nounwind uwtable
define void @dt_set_rlimits() local_unnamed_addr #0 {
  %1 = alloca %struct.rlimit, align 8
  call void @llvm.lifetime.start.p0(i64 16, ptr nonnull %1) #6
  call void @llvm.memset.p0.i64(ptr noundef nonnull align 8 dereferenceable(16) %1, i8 0, i64 16, i1 false)
  %2 = call i32 @getrlimit(i32 noundef 3, ptr noundef nonnull %1) #6
  %.not.i = icmp eq i32 %2, 0
  br i1 %.not.i, label %.critedge.i, label %3

3:                                                ; preds = %0
  %4 = tail call ptr @__errno_location() #7
  %5 = load i32, ptr %4, align 4, !tbaa !6
  %6 = load ptr, ptr @stderr, align 8, !tbaa !10
  %7 = call ptr @strerror(i32 noundef %5) #6
  %8 = call i32 (ptr, ptr, ...) @fprintf(ptr noundef %6, ptr noundef nonnull @.str, i32 noundef %2, i32 noundef %5, ptr noundef %7) #8
  %.pre.i = load i64, ptr %1, align 8, !tbaa !13
  br label %9

.critedge.i:                                      ; preds = %0
  %.old.i = load i64, ptr %1, align 8, !tbaa !13
  %.old13.i = icmp ult i64 %.old.i, 2097152
  br i1 %.old13.i, label %9, label %dt_set_rlimits_stack.exit

9:                                                ; preds = %.critedge.i, %3
  %10 = phi i64 [ %.pre.i, %3 ], [ %.old.i, %.critedge.i ]
  %11 = load ptr, ptr @stderr, align 8, !tbaa !10
  %12 = call i32 (ptr, ptr, ...) @fprintf(ptr noundef %11, ptr noundef nonnull @.str.1, i64 noundef %10, i64 noundef 2097152) #8
  store i64 2097152, ptr %1, align 8, !tbaa !13
  %13 = call i32 @setrlimit(i32 noundef 3, ptr noundef nonnull %1) #6
  %.not12.i = icmp eq i32 %13, 0
  br i1 %.not12.i, label %dt_set_rlimits_stack.exit, label %14

14:                                               ; preds = %9
  %15 = tail call ptr @__errno_location() #7
  %16 = load i32, ptr %15, align 4, !tbaa !6
  %17 = load ptr, ptr @stderr, align 8, !tbaa !10
  %18 = call ptr @strerror(i32 noundef %16) #6
  %19 = call i32 (ptr, ptr, ...) @fprintf(ptr noundef %17, ptr noundef nonnull @.str.2, i32 noundef %13, i32 noundef %16, ptr noundef %18) #8
  br label %dt_set_rlimits_stack.exit

dt_set_rlimits_stack.exit:                        ; preds = %.critedge.i, %9, %14
  call void @llvm.lifetime.end.p0(i64 16, ptr nonnull %1) #6
  ret void
}

; Function Attrs: mustprogress nocallback nofree nosync nounwind willreturn memory(argmem: readwrite)
declare void @llvm.lifetime.start.p0(i64 immarg, ptr captures(none)) #1

; Function Attrs: mustprogress nocallback nofree nounwind willreturn memory(argmem: write)
declare void @llvm.memset.p0.i64(ptr writeonly captures(none), i8, i64, i1 immarg) #2

; Function Attrs: nounwind
declare i32 @getrlimit(i32 noundef, ptr noundef) local_unnamed_addr #3

; Function Attrs: mustprogress nofree nosync nounwind willreturn memory(none)
declare ptr @__errno_location() local_unnamed_addr #4

; Function Attrs: nofree nounwind
declare noundef i32 @fprintf(ptr noundef captures(none), ptr noundef readonly captures(none), ...) local_unnamed_addr #5

; Function Attrs: nounwind
declare ptr @strerror(i32 noundef) local_unnamed_addr #3

; Function Attrs: mustprogress nocallback nofree nosync nounwind willreturn memory(argmem: readwrite)
declare void @llvm.lifetime.end.p0(i64 immarg, ptr captures(none)) #1

; Function Attrs: nounwind
declare i32 @setrlimit(i32 noundef, ptr noundef) local_unnamed_addr #3


!llvm.module.flags = !{!0, !1, !2, !3, !4, !5}

!0 = !{i32 7, !"Dwarf Version", i32 5}
!1 = !{i32 2, !"Debug Info Version", i32 3}
!2 = !{i32 1, !"wchar_size", i32 4}
!3 = !{i32 8, !"PIC Level", i32 2}
!4 = !{i32 7, !"uwtable", i32 2}
!5 = !{i32 7, !"debug-info-assignment-tracking", i1 true}
!6 = !{!7, !7, i64 0}
!7 = !{!"int", !8, i64 0}
!8 = !{!"omnipotent char", !9, i64 0}
!9 = !{!"Simple C/C++ TBAA"}
!10 = !{!11, !11, i64 0}
!11 = !{!"p1 _ZTS8_IO_FILE", !12, i64 0}
!12 = !{!"any pointer", !8, i64 0}
!13 = !{!14, !15, i64 0}
!14 = !{!"rlimit", !15, i64 0, !15, i64 8}
!15 = !{!"long", !8, i64 0}
